; ModuleID = '20/393.c'
source_filename = "20/393.c"
target datalayout = "e-m:e-p270:32:32-p271:32:32-p272:64:64-i64:64-f80:128-n8:16:32:64-S128"
target triple = "x86_64-pc-linux-gnu"

@.str = private unnamed_addr constant [5 x i8] c"%s%s\00", align 1
@.str.1 = private unnamed_addr constant [4 x i8] c"%s\0A\00", align 1

; Function Attrs: noinline nounwind uwtable
define dso_local i32 @main() #0 {
  %1 = alloca i32, align 4
  %2 = alloca [11 x i8], align 1
  %3 = alloca [4 x i8], align 1
  %4 = alloca [14 x i8], align 1
  %5 = alloca i8*, align 8
  %6 = alloca i32, align 4
  %7 = alloca i32, align 4
  store i32 0, i32* %1, align 4
  br label %8

8:                                                ; preds = %40, %0
  %9 = getelementptr inbounds [11 x i8], [11 x i8]* %2, i64 0, i64 0
  %10 = getelementptr inbounds [4 x i8], [4 x i8]* %3, i64 0, i64 0
  %11 = call i32 (i8*, ...) @__isoc99_scanf(i8* getelementptr inbounds ([5 x i8], [5 x i8]* @.str, i64 0, i64 0), i8* %9, i8* %10)
  %12 = icmp ne i32 %11, -1
  br i1 %12, label %13, label %57

13:                                               ; preds = %8
  %14 = getelementptr inbounds [11 x i8], [11 x i8]* %2, i64 0, i64 0
  store i8* %14, i8** %5, align 8
  store i32 1, i32* %6, align 4
  br label %15

15:                                               ; preds = %37, %13
  %16 = load i32, i32* %6, align 4
  %17 = sext i32 %16 to i64
  %18 = getelementptr inbounds [11 x i8], [11 x i8]* %2, i64 0, i64 %17
  %19 = load i8, i8* %18, align 1
  %20 = icmp ne i8 %19, 0
  br i1 %20, label %21, label %40

21:                                               ; preds = %15
  %22 = load i32, i32* %6, align 4
  %23 = sext i32 %22 to i64
  %24 = getelementptr inbounds [11 x i8], [11 x i8]* %2, i64 0, i64 %23
  %25 = load i8, i8* %24, align 1
  %26 = sext i8 %25 to i32
  %27 = load i8*, i8** %5, align 8
  %28 = load i8, i8* %27, align 1
  %29 = sext i8 %28 to i32
  %30 = icmp sgt i32 %26, %29
  br i1 %30, label %31, label %36

31:                                               ; preds = %21
  %32 = load i32, i32* %6, align 4
  store i32 %32, i32* %7, align 4
  %33 = load i32, i32* %6, align 4
  %34 = sext i32 %33 to i64
  %35 = getelementptr inbounds [11 x i8], [11 x i8]* %2, i64 0, i64 %34
  store i8* %35, i8** %5, align 8
  br label %36

36:                                               ; preds = %31, %21
  br label %37

37:                                               ; preds = %36
  %38 = load i32, i32* %6, align 4
  %39 = add nsw i32 %38, 1
  store i32 %39, i32* %6, align 4
  br label %15

40:                                               ; preds = %15
  %41 = getelementptr inbounds [14 x i8], [14 x i8]* %4, i64 0, i64 0
  store i8 0, i8* %41, align 1
  %42 = getelementptr inbounds [14 x i8], [14 x i8]* %4, i64 0, i64 0
  %43 = getelementptr inbounds [11 x i8], [11 x i8]* %2, i64 0, i64 0
  %44 = load i32, i32* %7, align 4
  %45 = add nsw i32 %44, 1
  %46 = sext i32 %45 to i64
  %47 = call i8* @strncat(i8* %42, i8* %43, i64 %46) #3
  %48 = getelementptr inbounds [14 x i8], [14 x i8]* %4, i64 0, i64 0
  %49 = getelementptr inbounds [4 x i8], [4 x i8]* %3, i64 0, i64 0
  %50 = call i8* @strcat(i8* %48, i8* %49) #3
  %51 = getelementptr inbounds [14 x i8], [14 x i8]* %4, i64 0, i64 0
  %52 = load i8*, i8** %5, align 8
  %53 = getelementptr inbounds i8, i8* %52, i64 1
  %54 = call i8* @strcat(i8* %51, i8* %53) #3
  %55 = getelementptr inbounds [14 x i8], [14 x i8]* %4, i64 0, i64 0
  %56 = call i32 (i8*, ...) @printf(i8* getelementptr inbounds ([4 x i8], [4 x i8]* @.str.1, i64 0, i64 0), i8* %55)
  br label %8

57:                                               ; preds = %8
  ret i32 0
}

declare dso_local i32 @__isoc99_scanf(i8*, ...) #1

; Function Attrs: nounwind
declare dso_local i8* @strncat(i8*, i8*, i64) #2

; Function Attrs: nounwind
declare dso_local i8* @strcat(i8*, i8*) #2

declare dso_local i32 @printf(i8*, ...) #1


!llvm.module.flags = !{!0}
!llvm.ident = !{!1}

!0 = !{i32 1, !"wchar_size", i32 4}
!1 = !{!"clang version 10.0.0-4ubuntu1 "}
